; Function Attrs: nofree norecurse nosync nounwind memory(read, inaccessiblemem: none) uwtable
define zeroext i1 @lv_freetype_is_outline_font(ptr noundef readonly captures(address_is_null) %0) local_unnamed_addr #6 {
  %.not = icmp eq ptr %0, null
  br i1 %.not, label %.preheader, label %2

.preheader:                                       ; preds = %1, %.preheader
  br label %.preheader

2:                                                ; preds = %1
  %3 = getelementptr inbounds nuw i8, ptr %0, i64 40
  %4 = load ptr, ptr %3, align 8, !tbaa !77
  %5 = load i32, ptr %4, align 8, !tbaa !72
  %6 = icmp eq i32 %5, 1600079444
  br i1 %6, label %7, label %11

7:                                                ; preds = %2
  %8 = getelementptr inbounds nuw i8, ptr %4, i64 80
  %9 = load i32, ptr %8, align 8, !tbaa !81
  %10 = icmp eq i32 %9, 1
  br label %11

11:                                               ; preds = %2, %7
  %.0 = phi i1 [ %10, %7 ], [ false, %2 ]
  ret i1 %.0
}